; Function Attrs: mustprogress uwtable
define void @_ZN10open_spiel9blackjack14BlackjackState13EndPlayerTurnEi(ptr noundef nonnull align 8 dereferenceable(200) %0, i32 noundef %1) local_unnamed_addr #3 align 2 {
  %3 = getelementptr inbounds nuw i8, ptr %0, i64 128
  %4 = sext i32 %1 to i64
  %5 = load ptr, ptr %3, align 8
  %6 = getelementptr inbounds i32, ptr %5, i64 %4
  store i32 1, ptr %6, align 4
  %7 = load ptr, ptr %0, align 8
  %8 = getelementptr inbounds i8, ptr %7, i64 88
  %9 = load ptr, ptr %8, align 8
  %10 = tail call noundef zeroext i1 %9(ptr noundef nonnull align 8 dereferenceable(200) %0)
  br i1 %10, label %_ZNK10open_spiel9blackjack14BlackjackState14NextTurnPlayerEv.exit, label %11

11:                                               ; preds = %2
  %12 = load ptr, ptr %3, align 8
  %13 = load i32, ptr %12, align 4
  %.not.i = icmp eq i32 %13, 0
  br i1 %.not.i, label %_ZNK10open_spiel9blackjack14BlackjackState14NextTurnPlayerEv.exit, label %14

14:                                               ; preds = %11
  %15 = getelementptr inbounds nuw i8, ptr %0, i64 8
  %16 = load ptr, ptr %15, align 8
  %17 = load ptr, ptr %16, align 8
  %18 = getelementptr inbounds i8, ptr %17, i64 56
  %19 = load ptr, ptr %18, align 8
  %20 = tail call noundef i32 %19(ptr noundef nonnull align 8 dereferenceable(280) %16)
  br label %_ZNK10open_spiel9blackjack14BlackjackState14NextTurnPlayerEv.exit

_ZNK10open_spiel9blackjack14BlackjackState14NextTurnPlayerEv.exit: ; preds = %2, %11, %14
  %.0.i = phi i32 [ -4, %2 ], [ %20, %14 ], [ 0, %11 ]
  %21 = getelementptr inbounds nuw i8, ptr %0, i64 68
  store i32 %.0.i, ptr %21, align 4
  %22 = getelementptr inbounds nuw i8, ptr %0, i64 64
  store i32 %.0.i, ptr %22, align 8
  ret void
}